Certificate:
    Data:
        Version: 3 (0x2)
        Serial Number: 782 (0x30e)
        Signature Algorithm: sha512WithRSAEncryption
        Issuer: C=IT, O=IGI, CN=Test CA
        Validity
            Not Before: Apr 29 15:31:16 2016 GMT
            Not After : Apr 27 15:31:16 2026 GMT
        Subject: C=IT, O=IGI, CN=iam
        Subject Public Key Info:
            Public Key Algorithm: rsaEncryption
            RSA Public Key: (2048 bit)
                Modulus (2048 bit):
                    00:b3:4e:14:32:82:94:1f:bd:92:e0:0d:e9:25:23:
                    50:6f:85:37:a4:9c:15:d6:c9:38:b4:82:17:9c:30:
                    13:41:2f:38:76:22:f7:9e:0d:8a:68:4b:4b:6c:3b:
                    c4:5e:12:4d:aa:4b:77:da:4a:ac:92:9b:54:e7:92:
                    9e:53:b6:63:3d:9f:90:96:f5:5f:62:e7:cb:c6:b4:
                    ba:56:b0:e3:1d:05:e8:98:01:12:2b:24:7f:b4:9c:
                    c8:32:f9:f2:ea:e6:73:41:8f:d8:97:e8:47:55:de:
                    e8:3c:77:1f:4f:a1:ea:dd:d9:be:a5:da:5f:f0:fa:
                    a3:6e:07:80:19:08:91:a3:46:b0:18:a2:74:06:48:
                    cf:1f:1a:68:66:63:00:07:c7:3d:6f:1d:4e:5d:54:
                    38:c2:06:7d:23:6d:ab:a6:55:bb:c7:68:78:a1:a5:
                    a9:58:8d:fe:50:5e:84:4a:f7:f2:25:12:69:97:4d:
                    09:d8:ae:0d:33:0b:ad:0d:93:91:da:db:03:fa:bf:
                    cd:c7:ee:b8:58:5b:40:4c:cf:d5:72:dd:1c:ca:05:
                    72:6c:49:4a:1f:05:61:63:ff:2b:22:7b:56:37:eb:
                    86:eb:38:7c:63:49:fc:b5:22:df:0c:7b:f4:cc:51:
                    8f:6d:2c:40:ad:f1:5a:85:d3:7a:2d:45:da:07:8d:
                    76:8b
                Exponent: 65537 (0x10001)
        X509v3 extensions:
            X509v3 Basic Constraints: critical
                CA:FALSE
            X509v3 Subject Key Identifier: 
                6B:51:7A:CC:61:29:0E:51:E8:02:4D:8E:46:F4:97:E6:B0:9F:87:5B
            X509v3 Key Usage: critical
                Digital Signature, Non Repudiation, Key Encipherment
            X509v3 Extended Key Usage: 
                TLS Web Server Authentication, TLS Web Client Authentication, Microsoft Server Gated Crypto, Netscape Server Gated Crypto, E-mail Protection
            X509v3 Authority Key Identifier: 
                keyid:91:77:36:7B:2E:B4:69:F3:27:EA:B7:F6:08:8B:4A:23:A2:11:49:C6

            X509v3 Subject Alternative Name: 
                DNS:iam.local.io, DNS:iam.cnaf.test, DNS:iam
    Signature Algorithm: sha512WithRSAEncryption
        40:70:f6:57:da:16:30:cc:d6:47:1e:50:09:c8:86:35:98:05:
        0c:6b:f0:5d:9c:40:de:9e:eb:bd:4c:d8:fb:bd:8a:96:b1:c7:
        01:6c:6a:48:10:9c:85:29:eb:26:df:10:51:79:23:08:b1:a0:
        a0:94:34:ed:8e:62:a3:53:32:11:76:b0:a6:c4:80:ac:a4:61:
        90:6d:7a:08:bf:c0:50:a0:5e:d2:62:35:21:b6:54:3e:22:e0:
        1c:b9:d0:78:30:39:c5:7f:18:2c:b2:6e:0b:07:4b:aa:f0:fd:
        f6:75:10:43:04:3f:c2:91:8f:f9:f0:c5:50:92:4b:a4:22:ea:
        3d:91:cc:f0:8d:8c:10:b7:66:7f:fb:b4:98:d5:d3:dd:95:71:
        18:b9:d7:62:06:70:41:de:2b:6d:69:9e:ec:30:54:dd:a3:c0:
        15:6c:f7:1b:34:d1:0a:ca:7b:d3:0a:3d:8f:b9:a3:7f:58:94:
        3c:9c:9b:a8:54:fe:9b:ea:95:3a:fa:a3:82:50:1f:0c:5a:18:
        70:6c:8d:cb:4a:2d:48:67:b5:51:12:fa:c1:3a:17:f8:72:d3:
        80:4f:f3:6f:b2:d7:50:fb:fa:cd:e7:56:36:9f:01:19:94:68:
        ec:f9:44:10:39:76:88:97:35:6a:9e:50:d3:0c:e1:66:61:35:
        58:d8:9b:80
-----BEGIN CERTIFICATE-----
MIIDoTCCAomgAwIBAgICAw4wDQYJKoZIhvcNAQENBQAwLTELMAkGA1UEBhMCSVQx
DDAKBgNVBAoMA0lHSTEQMA4GA1UEAwwHVGVzdCBDQTAeFw0xNjA0MjkxNTMxMTZa
Fw0yNjA0MjcxNTMxMTZaMCkxCzAJBgNVBAYTAklUMQwwCgYDVQQKDANJR0kxDDAK
BgNVBAMMA2lhbTCCASIwDQYJKoZIhvcNAQEBBQADggEPADCCAQoCggEBALNOFDKC
lB+9kuAN6SUjUG+FN6ScFdbJOLSCF5wwE0EvOHYi954NimhLS2w7xF4STapLd9pK
rJKbVOeSnlO2Yz2fkJb1X2Lny8a0ulaw4x0F6JgBEiskf7ScyDL58urmc0GP2Jfo
R1Xe6Dx3H0+h6t3ZvqXaX/D6o24HgBkIkaNGsBiidAZIzx8aaGZjAAfHPW8dTl1U
OMIGfSNtq6ZVu8doeKGlqViN/lBehEr38iUSaZdNCdiuDTMLrQ2TkdrbA/q/zcfu
uFhbQEzP1XLdHMoFcmxJSh8FYWP/KyJ7Vjfrhus4fGNJ/LUi3wx79MxRj20sQK3x
WoXTei1F2geNdosCAwEAAaOBzjCByzAMBgNVHRMBAf8EAjAAMB0GA1UdDgQWBBRr
UXrMYSkOUegCTY5G9JfmsJ+HWzAOBgNVHQ8BAf8EBAMCBeAwPgYDVR0lBDcwNQYI
KwYBBQUHAwEGCCsGAQUFBwMCBgorBgEEAYI3CgMDBglghkgBhvhCBAEGCCsGAQUF
BwMEMB8GA1UdIwQYMBaAFJF3NnsutGnzJ+q39giLSiOiEUnGMCsGA1UdEQQkMCKC
DGlhbS5sb2NhbC5pb4INaWFtLmNuYWYudGVzdIIDaWFtMA0GCSqGSIb3DQEBDQUA
A4IBAQBAcPZX2hYwzNZHHlAJyIY1mAUMa/BdnEDenuu9TNj7vYqWsccBbGpIEJyF
Kesm3xBReSMIsaCglDTtjmKjUzIRdrCmxICspGGQbXoIv8BQoF7SYjUhtlQ+IuAc
udB4MDnFfxgssm4LB0uq8P32dRBDBD/CkY/58MVQkkukIuo9kczwjYwQt2Z/+7SY
1dPdlXEYuddiBnBB3ittaZ7sMFTdo8AVbPcbNNEKynvTCj2PuaN/WJQ8nJuoVP6b
6pU6+qOCUB8MWhhwbI3LSi1IZ7VREvrBOhf4ctOAT/NvstdQ+/rN51Y2nwEZlGjs
+UQQOXaIlzVqnlDTDOFmYTVY2JuA
-----END CERTIFICATE-----
