Certificate:
    Data:
        Version: 3 (0x2)
        Serial Number: 803 (0x323)
    Signature Algorithm: sha512WithRSAEncryption
        Issuer: C=IT, O=IGI, CN=Test CA
        Validity
            Not Before: Jan 22 09:47:49 2019 GMT
            Not After : Jan 19 09:47:49 2029 GMT
        Subject: C=IT, O=IGI, CN=spid-idp.example
        Subject Public Key Info:
            Public Key Algorithm: rsaEncryption
                Public-Key: (2048 bit)
                Modulus:
                    00:c0:2f:14:6d:ed:58:41:ec:dd:f5:68:3f:ae:e2:
                    43:d0:9c:78:b0:88:6a:71:da:d2:30:e9:6a:f4:b0:
                    4d:b6:62:0f:b1:10:f4:8e:0e:db:2a:e9:25:25:fb:
                    2e:d9:12:9c:fc:72:cc:06:d5:e8:bc:0b:8a:03:48:
                    ef:d0:ab:d8:a8:c9:aa:55:64:02:34:e4:2a:2d:d4:
                    d0:59:02:c6:84:9b:38:9f:69:81:13:8e:0e:80:d3:
                    d6:78:8b:06:32:1a:02:e4:f9:e9:55:4c:37:56:04:
                    1e:51:7c:8c:29:ef:2e:fb:ae:ed:be:31:32:56:0b:
                    c7:41:72:d0:2a:97:4b:44:5f:8c:21:e8:e2:83:67:
                    38:d8:95:a8:d2:d1:ea:ac:b1:4c:83:71:df:29:5d:
                    b9:4e:82:78:5f:cc:1a:f2:e1:78:b5:f4:c8:1e:98:
                    6e:ce:eb:95:d2:ac:12:c4:c6:5d:49:cf:e3:e4:98:
                    ce:98:f7:1c:5a:d9:a4:5b:36:f0:1e:e7:7f:83:b6:
                    b6:32:3c:f6:2e:ef:64:12:e2:08:3c:63:0b:20:e3:
                    36:ea:fe:e3:7e:60:24:e3:93:35:12:e8:ca:c3:9c:
                    9a:ca:5a:55:35:27:bd:f8:e5:5d:25:79:bb:2b:4a:
                    fa:5f:20:d2:6c:e5:90:52:98:80:25:05:be:0b:c4:
                    59:fd
                Exponent: 65537 (0x10001)
        X509v3 extensions:
            X509v3 Basic Constraints: critical
                CA:FALSE
            X509v3 Subject Key Identifier: 
                30:9D:9C:42:A8:4C:2A:95:9E:83:5D:08:81:19:9A:1B:2B:17:3B:0E
            X509v3 Key Usage: critical
                Digital Signature, Non Repudiation, Key Encipherment
            X509v3 Extended Key Usage: 
                TLS Web Server Authentication, TLS Web Client Authentication, Microsoft Server Gated Crypto, Netscape Server Gated Crypto, E-mail Protection
            X509v3 Authority Key Identifier: 
                keyid:91:77:36:7B:2E:B4:69:F3:27:EA:B7:F6:08:8B:4A:23:A2:11:49:C6

            X509v3 Subject Alternative Name: 
                DNS:spid-idp.example
    Signature Algorithm: sha512WithRSAEncryption
         57:a1:4f:45:a4:6a:05:eb:22:bc:1b:9b:e5:98:e9:49:d2:e2:
         ca:b3:b9:ed:fc:fc:33:46:66:5a:32:8a:32:6e:03:01:92:b0:
         b5:69:5e:ff:2b:74:08:73:b4:a5:71:83:00:4d:c9:47:8d:5d:
         1c:61:d5:46:ce:4b:3e:13:58:6b:16:37:ba:51:43:a6:86:2a:
         b4:63:a3:b0:5a:05:20:02:a3:a7:12:8f:ed:6f:65:ab:fe:79:
         94:ac:be:bc:a5:f1:24:c0:17:ed:45:c0:96:a3:e8:97:a7:11:
         97:3a:3a:51:72:e1:4d:f6:22:0c:ff:91:b0:44:0f:bc:f2:f3:
         91:3e:ce:e1:af:5f:c9:b0:c9:77:00:33:bc:24:a3:81:5e:a1:
         21:bb:47:73:80:0a:2b:f1:a2:43:a5:93:0e:91:ef:94:fe:7c:
         6d:c2:b8:7c:80:4c:59:b8:26:24:19:20:4d:e7:4e:53:65:11:
         44:99:d5:3f:48:b3:bc:5f:4a:a7:67:a8:bf:20:9c:3c:2b:ad:
         49:01:ef:31:13:a1:f4:c0:72:13:22:b2:27:da:da:e5:53:4a:
         c3:42:2e:70:9b:bf:e2:56:05:c1:b0:0f:02:3d:3a:65:24:b1:
         e3:d3:5e:22:0c:b2:ab:90:8c:db:92:fb:9d:b8:84:68:08:1c:
         5a:89:32:9d
-----BEGIN CERTIFICATE-----
MIIDnjCCAoagAwIBAgICAyMwDQYJKoZIhvcNAQENBQAwLTELMAkGA1UEBhMCSVQx
DDAKBgNVBAoMA0lHSTEQMA4GA1UEAwwHVGVzdCBDQTAeFw0xOTAxMjIwOTQ3NDla
Fw0yOTAxMTkwOTQ3NDlaMDYxCzAJBgNVBAYTAklUMQwwCgYDVQQKDANJR0kxGTAX
BgNVBAMMEHNwaWQtaWRwLmV4YW1wbGUwggEiMA0GCSqGSIb3DQEBAQUAA4IBDwAw
ggEKAoIBAQDALxRt7VhB7N31aD+u4kPQnHiwiGpx2tIw6Wr0sE22Yg+xEPSODtsq
6SUl+y7ZEpz8cswG1ei8C4oDSO/Qq9ioyapVZAI05Cot1NBZAsaEmzifaYETjg6A
09Z4iwYyGgLk+elVTDdWBB5RfIwp7y77ru2+MTJWC8dBctAql0tEX4wh6OKDZzjY
lajS0eqssUyDcd8pXblOgnhfzBry4Xi19MgemG7O65XSrBLExl1Jz+PkmM6Y9xxa
2aRbNvAe53+DtrYyPPYu72QS4gg8Ywsg4zbq/uN+YCTjkzUS6MrDnJrKWlU1J734
5V0lebsrSvpfINJs5ZBSmIAlBb4LxFn9AgMBAAGjgb4wgbswDAYDVR0TAQH/BAIw
ADAdBgNVHQ4EFgQUMJ2cQqhMKpWeg10IgRmaGysXOw4wDgYDVR0PAQH/BAQDAgXg
MD4GA1UdJQQ3MDUGCCsGAQUFBwMBBggrBgEFBQcDAgYKKwYBBAGCNwoDAwYJYIZI
AYb4QgQBBggrBgEFBQcDBDAfBgNVHSMEGDAWgBSRdzZ7LrRp8yfqt/YIi0ojohFJ
xjAbBgNVHREEFDASghBzcGlkLWlkcC5leGFtcGxlMA0GCSqGSIb3DQEBDQUAA4IB
AQBXoU9FpGoF6yK8G5vlmOlJ0uLKs7nt/PwzRmZaMooybgMBkrC1aV7/K3QIc7Sl
cYMATclHjV0cYdVGzks+E1hrFje6UUOmhiq0Y6OwWgUgAqOnEo/tb2Wr/nmUrL68
pfEkwBftRcCWo+iXpxGXOjpRcuFN9iIM/5GwRA+88vORPs7hr1/JsMl3ADO8JKOB
XqEhu0dzgAor8aJDpZMOke+U/nxtwrh8gExZuCYkGSBN505TZRFEmdU/SLO8X0qn
Z6i/IJw8K61JAe8xE6H0wHITIrIn2trlU0rDQi5wm7/iVgXBsA8CPTplJLHj014i
DLKrkIzbkvuduIRoCBxaiTKd
-----END CERTIFICATE-----
