Certificate:
    Data:
        Version: 3 (0x2)
        Serial Number: 787 (0x313)
        Signature Algorithm: sha256WithRSAEncryption
        Issuer: C=IT, O=IGI, CN=Test CA
        Validity
            Not Before: Dec  6 09:46:37 2017 GMT
            Not After : Dec  4 09:46:37 2027 GMT
        Subject: C=IT, O=IGI, CN=voms.example
        Subject Public Key Info:
            Public Key Algorithm: rsaEncryption
            RSA Public Key: (2048 bit)
                Modulus (2048 bit):
                    00:bc:7f:c8:da:1e:0d:93:50:b4:98:22:1a:2f:ad:
                    23:f4:92:2b:72:91:12:9b:ef:e1:a3:a2:a6:03:04:
                    bd:c7:c2:7f:78:51:78:fd:94:06:d3:aa:e8:dd:56:
                    8f:1d:d5:1d:a5:49:3f:4c:b2:4c:d1:3e:69:2c:60:
                    c0:8f:5f:0f:7c:6d:a4:cb:58:0c:6e:de:33:6a:6c:
                    32:11:bb:d3:e1:4d:03:13:b5:1f:99:35:1d:1f:af:
                    b4:7b:da:b6:1b:5a:76:76:54:04:f3:e8:d7:60:6b:
                    c6:55:d9:d4:12:eb:7b:f2:3d:df:ec:9e:da:d4:df:
                    10:af:ee:dc:9d:96:c7:14:8c:60:16:d8:92:ca:29:
                    8c:df:f7:4f:8f:8b:a7:80:01:e7:f7:7a:4f:3c:32:
                    42:af:ce:2e:f8:1a:7b:bc:b5:eb:20:a7:d5:28:c1:
                    a4:d3:54:d3:dc:c0:dc:96:7b:c4:09:c5:9f:2f:c8:
                    db:73:61:01:e4:2e:97:b9:05:64:1a:dc:76:09:09:
                    eb:af:be:6c:47:b9:5b:41:86:c1:51:c0:fe:65:23:
                    2b:94:ac:b0:81:46:99:9a:c2:9e:6f:0b:62:03:34:
                    d3:5b:b5:db:e7:ac:38:0e:31:63:ed:81:1f:6e:bc:
                    41:65:89:b1:8d:2f:5f:fa:8a:da:88:ac:f8:cb:3f:
                    eb:2b
                Exponent: 65537 (0x10001)
        X509v3 extensions:
            X509v3 Basic Constraints: critical
                CA:FALSE
            X509v3 Subject Key Identifier: 
                33:8C:09:D4:49:94:01:CE:D1:FB:0B:9D:19:5E:AD:C4:D7:F5:90:C4
            X509v3 Key Usage: critical
                Digital Signature, Non Repudiation, Key Encipherment
            X509v3 Extended Key Usage: 
                TLS Web Server Authentication, TLS Web Client Authentication, Microsoft Server Gated Crypto, Netscape Server Gated Crypto, E-mail Protection
            X509v3 Authority Key Identifier: 
                keyid:91:77:36:7B:2E:B4:69:F3:27:EA:B7:F6:08:8B:4A:23:A2:11:49:C6

            X509v3 Subject Alternative Name: 
                DNS:voms.example
    Signature Algorithm: sha256WithRSAEncryption
        e0:c5:08:e4:92:9b:26:09:04:64:b9:9e:c9:27:82:2c:90:4c:
        4b:f1:3c:1a:4d:cd:f6:5a:fe:8a:58:6b:36:42:3b:7b:d0:e0:
        66:2a:ee:2d:ad:d0:2a:59:52:c8:44:85:b6:90:af:12:49:cc:
        de:a4:65:aa:e9:6e:83:e1:cf:20:d3:98:8f:3e:a8:a1:82:f8:
        f5:6e:97:73:78:be:46:a7:5a:a7:10:30:b7:01:13:cf:b4:03:
        c6:74:f7:e4:b8:51:21:33:79:4a:88:d6:01:cb:c1:22:37:6e:
        9f:1d:2c:3e:eb:d0:09:51:3b:0a:5f:b5:19:b6:1a:35:63:95:
        94:f5:99:a1:bc:18:bc:84:aa:9b:70:3a:b2:2d:c2:ed:50:19:
        20:16:94:21:ea:49:e1:d8:61:10:9d:f5:29:65:11:a2:15:2b:
        8a:f7:14:5a:49:b8:2d:5c:0f:fc:77:20:e7:03:3a:15:b8:21:
        31:d8:33:fc:8f:70:1c:a6:90:80:84:b3:af:1f:2d:28:9e:c6:
        e2:8a:43:ec:26:32:bf:d7:6a:aa:42:5a:2c:50:29:33:5d:b7:
        e8:58:22:b6:c7:7b:bf:a4:ac:55:32:2d:51:58:1a:ee:9e:80:
        d2:4d:24:4b:6a:e3:97:2e:a7:5c:e3:50:84:33:b5:ec:a4:20:
        6e:70:1d:e9
-----BEGIN CERTIFICATE-----
MIIDljCCAn6gAwIBAgICAxMwDQYJKoZIhvcNAQELBQAwLTELMAkGA1UEBhMCSVQx
DDAKBgNVBAoMA0lHSTEQMA4GA1UEAwwHVGVzdCBDQTAeFw0xNzEyMDYwOTQ2Mzda
Fw0yNzEyMDQwOTQ2MzdaMDIxCzAJBgNVBAYTAklUMQwwCgYDVQQKDANJR0kxFTAT
BgNVBAMMDHZvbXMuZXhhbXBsZTCCASIwDQYJKoZIhvcNAQEBBQADggEPADCCAQoC
ggEBALx/yNoeDZNQtJgiGi+tI/SSK3KREpvv4aOipgMEvcfCf3hReP2UBtOq6N1W
jx3VHaVJP0yyTNE+aSxgwI9fD3xtpMtYDG7eM2psMhG70+FNAxO1H5k1HR+vtHva
thtadnZUBPPo12BrxlXZ1BLre/I93+ye2tTfEK/u3J2WxxSMYBbYksopjN/3T4+L
p4AB5/d6TzwyQq/OLvgae7y16yCn1SjBpNNU09zA3JZ7xAnFny/I23NhAeQul7kF
ZBrcdgkJ66++bEe5W0GGwVHA/mUjK5SssIFGmZrCnm8LYgM001u12+esOA4xY+2B
H268QWWJsY0vX/qK2ois+Ms/6ysCAwEAAaOBujCBtzAMBgNVHRMBAf8EAjAAMB0G
A1UdDgQWBBQzjAnUSZQBztH7C50ZXq3E1/WQxDAOBgNVHQ8BAf8EBAMCBeAwPgYD
VR0lBDcwNQYIKwYBBQUHAwEGCCsGAQUFBwMCBgorBgEEAYI3CgMDBglghkgBhvhC
BAEGCCsGAQUFBwMEMB8GA1UdIwQYMBaAFJF3NnsutGnzJ+q39giLSiOiEUnGMBcG
A1UdEQQQMA6CDHZvbXMuZXhhbXBsZTANBgkqhkiG9w0BAQsFAAOCAQEA4MUI5JKb
JgkEZLmeySeCLJBMS/E8Gk3N9lr+ilhrNkI7e9DgZiruLa3QKllSyESFtpCvEknM
3qRlqulug+HPINOYjz6ooYL49W6Xc3i+RqdapxAwtwETz7QDxnT35LhRITN5SojW
AcvBIjdunx0sPuvQCVE7Cl+1GbYaNWOVlPWZobwYvISqm3A6si3C7VAZIBaUIepJ
4dhhEJ31KWURohUrivcUWkm4LVwP/Hcg5wM6FbghMdgz/I9wHKaQgISzrx8tKJ7G
4opD7CYyv9dqqkJaLFApM1236Fgitsd7v6SsVTItUVga7p6A0k0kS2rjly6nXONQ
hDO17KQgbnAd6Q==
-----END CERTIFICATE-----
