Certificate:
    Data:
        Version: 3 (0x2)
        Serial Number: 780 (0x30c)
        Signature Algorithm: sha1WithRSAEncryption
        Issuer: C=IT, O=IGI, CN=Test CA
        Validity
            Not Before: Apr 21 09:13:21 2016 GMT
            Not After : Apr 19 09:13:21 2026 GMT
        Subject: C=IT, O=IGI, CN=iam-login-service
        Subject Public Key Info:
            Public Key Algorithm: rsaEncryption
            RSA Public Key: (2048 bit)
                Modulus (2048 bit):
                    00:c6:d7:21:c1:d9:8d:dc:70:c7:ea:75:7c:e2:2e:
                    23:cd:a1:94:32:33:69:b0:06:15:a3:f6:fc:e7:a7:
                    5b:87:9c:4e:e5:f3:48:31:0e:fc:98:f7:48:1c:69:
                    4c:77:fc:03:79:75:2b:19:13:2a:7a:d3:48:4f:88:
                    49:ba:94:b0:31:12:21:c5:d2:46:0e:94:48:63:a3:
                    67:79:7e:87:c7:fd:f2:91:ec:6c:75:c5:2d:26:0b:
                    9d:ed:1c:bc:b0:9b:40:e5:94:d8:d6:c0:00:b9:14:
                    d2:3b:55:c6:21:7b:cc:8f:d2:e5:dd:63:ae:8d:2e:
                    0b:d8:98:0c:04:e8:de:2e:61:01:21:8a:1f:fb:2f:
                    aa:2e:e3:12:da:ac:5d:73:5f:e0:24:37:d7:0a:1a:
                    20:fb:ef:45:05:7a:99:90:b2:d5:71:36:06:01:bc:
                    33:69:21:24:c5:c0:a2:20:32:9b:9c:d9:ff:13:ce:
                    82:d0:fc:b5:43:77:0d:08:23:bb:69:38:85:31:23:
                    05:cf:62:41:58:79:93:ac:1d:c7:e6:4c:a5:46:e0:
                    6b:f2:dc:fa:60:85:e3:92:b9:4a:52:ce:30:fd:a4:
                    a3:dc:c7:5f:0b:d8:57:fb:83:fe:64:c2:b5:a2:74:
                    57:44:2a:8d:d5:d7:35:09:3f:3e:53:85:31:f5:27:
                    20:df
                Exponent: 65537 (0x10001)
        X509v3 extensions:
            X509v3 Basic Constraints: critical
                CA:FALSE
            X509v3 Subject Key Identifier: 
                D0:B4:1E:1A:03:8E:42:48:91:A1:7F:1F:94:66:48:B4:E9:E0:9A:86
            X509v3 Key Usage: critical
                Digital Signature, Non Repudiation, Key Encipherment
            X509v3 Extended Key Usage: 
                TLS Web Server Authentication, TLS Web Client Authentication, Microsoft Server Gated Crypto, Netscape Server Gated Crypto, E-mail Protection
            X509v3 Authority Key Identifier: 
                keyid:91:77:36:7B:2E:B4:69:F3:27:EA:B7:F6:08:8B:4A:23:A2:11:49:C6

            X509v3 Subject Alternative Name: 
                DNS:iam-login-service, DNS:iam, DNS:dev.local.io
    Signature Algorithm: sha1WithRSAEncryption
        74:0f:02:6e:a6:c1:68:7e:75:82:79:3f:f6:28:b3:ff:25:cb:
        2c:d5:fa:ef:15:90:bb:44:ea:45:25:b9:cf:c4:8c:6d:51:08:
        dd:7b:c8:49:59:6f:39:d9:3f:4f:b7:13:e1:37:68:08:9f:9d:
        90:8d:2e:c3:88:30:9d:c0:29:bd:cd:59:1a:fb:ea:58:24:72:
        11:f4:aa:10:15:78:d9:1a:33:35:fc:6e:ef:e8:25:83:d6:86:
        f8:1c:c1:58:30:6e:54:64:3c:4b:88:d2:1f:6c:62:c9:0e:f8:
        7e:05:fe:b0:3b:48:96:ff:93:7e:1e:fa:b3:19:6c:30:2d:85:
        f7:4a:04:21:43:ee:0f:82:e4:fa:fc:9f:d4:d9:89:60:7c:f7:
        5b:49:07:e4:8f:ce:54:bd:30:54:5a:75:4a:d0:0f:d6:ec:74:
        f1:de:a9:91:da:85:b9:e7:4a:1a:c2:cc:46:2d:25:1d:ed:e2:
        f6:f0:2a:c7:7e:aa:24:df:09:47:f5:9b:f1:a5:46:07:c8:12:
        25:d2:de:37:d7:8e:23:83:8f:38:ec:ce:39:ff:f4:c8:57:46:
        c3:c8:62:27:7c:b5:33:56:cf:f9:27:85:b3:a1:32:10:51:65:
        a4:74:c7:ae:6f:27:c9:3d:65:a7:a5:8b:b8:07:fc:37:c3:ef:
        2c:4b:7f:e3
-----BEGIN CERTIFICATE-----
MIIDszCCApugAwIBAgICAwwwDQYJKoZIhvcNAQEFBQAwLTELMAkGA1UEBhMCSVQx
DDAKBgNVBAoMA0lHSTEQMA4GA1UEAwwHVGVzdCBDQTAeFw0xNjA0MjEwOTEzMjFa
Fw0yNjA0MTkwOTEzMjFaMDcxCzAJBgNVBAYTAklUMQwwCgYDVQQKDANJR0kxGjAY
BgNVBAMMEWlhbS1sb2dpbi1zZXJ2aWNlMIIBIjANBgkqhkiG9w0BAQEFAAOCAQ8A
MIIBCgKCAQEAxtchwdmN3HDH6nV84i4jzaGUMjNpsAYVo/b856dbh5xO5fNIMQ78
mPdIHGlMd/wDeXUrGRMqetNIT4hJupSwMRIhxdJGDpRIY6NneX6Hx/3ykexsdcUt
Jgud7Ry8sJtA5ZTY1sAAuRTSO1XGIXvMj9Ll3WOujS4L2JgMBOjeLmEBIYof+y+q
LuMS2qxdc1/gJDfXChog++9FBXqZkLLVcTYGAbwzaSEkxcCiIDKbnNn/E86C0Py1
Q3cNCCO7aTiFMSMFz2JBWHmTrB3H5kylRuBr8tz6YIXjkrlKUs4w/aSj3MdfC9hX
+4P+ZMK1onRXRCqN1dc1CT8+U4Ux9Scg3wIDAQABo4HSMIHPMAwGA1UdEwEB/wQC
MAAwHQYDVR0OBBYEFNC0HhoDjkJIkaF/H5RmSLTp4JqGMA4GA1UdDwEB/wQEAwIF
4DA+BgNVHSUENzA1BggrBgEFBQcDAQYIKwYBBQUHAwIGCisGAQQBgjcKAwMGCWCG
SAGG+EIEAQYIKwYBBQUHAwQwHwYDVR0jBBgwFoAUkXc2ey60afMn6rf2CItKI6IR
ScYwLwYDVR0RBCgwJoIRaWFtLWxvZ2luLXNlcnZpY2WCA2lhbYIMZGV2LmxvY2Fs
LmlvMA0GCSqGSIb3DQEBBQUAA4IBAQB0DwJupsFofnWCeT/2KLP/Jcss1frvFZC7
ROpFJbnPxIxtUQjde8hJWW852T9PtxPhN2gIn52QjS7DiDCdwCm9zVka++pYJHIR
9KoQFXjZGjM1/G7v6CWD1ob4HMFYMG5UZDxLiNIfbGLJDvh+Bf6wO0iW/5N+Hvqz
GWwwLYX3SgQhQ+4PguT6/J/U2YlgfPdbSQfkj85UvTBUWnVK0A/W7HTx3qmR2oW5
50oawsxGLSUd7eL28CrHfqok3wlH9ZvxpUYHyBIl0t43144jg4847M45//TIV0bD
yGInfLUzVs/5J4WzoTIQUWWkdMeubyfJPWWnpYu4B/w3w+8sS3/j
-----END CERTIFICATE-----
